target datalayout = "e-m:e-p270:32:32-p271:32:32-p272:64:64-i64:64-i128:128-f80:128-n8:16:32:64-S128"
target triple = "x86_64-pc-linux-gnu"

%"class.icu_77::ICUDataTable" = type { ptr, %"class.icu_77::Locale" }
%"class.icu_77::Locale" = type <{ %"class.icu_77::UObject", [12 x i8], [6 x i8], [4 x i8], [2 x i8], i32, [4 x i8], ptr, [157 x i8], [3 x i8], ptr, i8, [7 x i8] }>
%"class.icu_77::UObject" = type { ptr }
%"class.icu_77::UnicodeString" = type { %"class.icu_77::Replaceable", %"union.icu_77::UnicodeString::StackBufferOrFields" }
%"class.icu_77::Replaceable" = type { %"class.icu_77::UObject" }
%"union.icu_77::UnicodeString::StackBufferOrFields" = type { %struct.anon.0, [32 x i8] }
%struct.anon.0 = type { i16, i32, i32, ptr }
%"class.icu_77::LocaleDisplayNamesImpl" = type <{ %"class.icu_77::LocaleDisplayNames", %"class.icu_77::Locale", i32, [4 x i8], %"class.icu_77::ICUDataTable", %"class.icu_77::ICUDataTable", %"class.icu_77::SimpleFormatter", %"class.icu_77::SimpleFormatter", %"class.icu_77::SimpleFormatter", i32, [4 x i8], ptr, %"class.icu_77::UnicodeString", %"class.icu_77::UnicodeString", %"class.icu_77::UnicodeString", %"class.icu_77::UnicodeString", i32, i32, [6 x i8], [2 x i8] }>
%"class.icu_77::LocaleDisplayNames" = type { %"class.icu_77::UObject" }
%"class.icu_77::SimpleFormatter" = type { [8 x i8], %"class.icu_77::UnicodeString" }

; Function Attrs: mustprogress nounwind uwtable
define void @_ZN6icu_7718LocaleDisplayNamesD2Ev(ptr noundef nonnull align 8 dereferenceable(8) %0) unnamed_addr #0 align 2 {
  %2 = alloca ptr, align 8
  store ptr %0, ptr %2, align 8, !tbaa !36
  %3 = load ptr, ptr %2, align 8
  call void @_ZN6icu_777UObjectD2Ev(ptr noundef nonnull align 8 dereferenceable(8) %3) #13
  ret void
}

; Function Attrs: mustprogress nounwind uwtable
define linkonce_odr void @_ZN6icu_7712ICUDataTableD2Ev(ptr noundef nonnull align 8 dereferenceable(232) %0) unnamed_addr #0 comdat align 2 {
  %2 = alloca ptr, align 8
  store ptr %0, ptr %2, align 8, !tbaa !23
  %3 = load ptr, ptr %2, align 8
  %4 = getelementptr inbounds nuw %"class.icu_77::ICUDataTable", ptr %3, i32 0, i32 1
  call void @_ZN6icu_776LocaleD1Ev(ptr noundef nonnull align 8 dereferenceable(217) %4) #13
  ret void
}

; Function Attrs: mustprogress nounwind uwtable
define void @_ZN6icu_7722LocaleDisplayNamesImplD2Ev(ptr noundef nonnull align 8 dereferenceable(1206) %0) unnamed_addr #0 align 2 {
  %2 = alloca ptr, align 8
  store ptr %0, ptr %2, align 8, !tbaa !38
  %3 = load ptr, ptr %2, align 8
  store ptr getelementptr inbounds inrange(-16, 120) ({ [17 x ptr] }, ptr @_ZTVN6icu_7722LocaleDisplayNamesImplE, i32 0, i32 0, i32 2), ptr %3, align 8, !tbaa !42
  %4 = getelementptr inbounds nuw %"class.icu_77::LocaleDisplayNamesImpl", ptr %3, i32 0, i32 11
  %5 = load ptr, ptr %4, align 8, !tbaa !53
  %6 = icmp eq ptr %5, null
  br i1 %6, label %11, label %7

7:                                                ; preds = %1
  %8 = load ptr, ptr %5, align 8, !tbaa !42
  %9 = getelementptr inbounds ptr, ptr %8, i64 1
  %10 = load ptr, ptr %9, align 8
  call void %10(ptr noundef nonnull align 8 dereferenceable(32) %5) #13
  br label %11

11:                                               ; preds = %7, %1
  %12 = getelementptr inbounds nuw %"class.icu_77::LocaleDisplayNamesImpl", ptr %3, i32 0, i32 15
  call void @_ZN6icu_7713UnicodeStringD1Ev(ptr noundef nonnull align 8 dereferenceable(64) %12) #13
  %13 = getelementptr inbounds nuw %"class.icu_77::LocaleDisplayNamesImpl", ptr %3, i32 0, i32 14
  call void @_ZN6icu_7713UnicodeStringD1Ev(ptr noundef nonnull align 8 dereferenceable(64) %13) #13
  %14 = getelementptr inbounds nuw %"class.icu_77::LocaleDisplayNamesImpl", ptr %3, i32 0, i32 13
  call void @_ZN6icu_7713UnicodeStringD1Ev(ptr noundef nonnull align 8 dereferenceable(64) %14) #13
  %15 = getelementptr inbounds nuw %"class.icu_77::LocaleDisplayNamesImpl", ptr %3, i32 0, i32 12
  call void @_ZN6icu_7713UnicodeStringD1Ev(ptr noundef nonnull align 8 dereferenceable(64) %15) #13
  %16 = getelementptr inbounds nuw %"class.icu_77::LocaleDisplayNamesImpl", ptr %3, i32 0, i32 8
  call void @_ZN6icu_7715SimpleFormatterD1Ev(ptr noundef nonnull align 8 dereferenceable(72) %16) #13
  %17 = getelementptr inbounds nuw %"class.icu_77::LocaleDisplayNamesImpl", ptr %3, i32 0, i32 7
  call void @_ZN6icu_7715SimpleFormatterD1Ev(ptr noundef nonnull align 8 dereferenceable(72) %17) #13
  %18 = getelementptr inbounds nuw %"class.icu_77::LocaleDisplayNamesImpl", ptr %3, i32 0, i32 6
  call void @_ZN6icu_7715SimpleFormatterD1Ev(ptr noundef nonnull align 8 dereferenceable(72) %18) #13
  %19 = getelementptr inbounds nuw %"class.icu_77::LocaleDisplayNamesImpl", ptr %3, i32 0, i32 5
  call void @_ZN6icu_7712ICUDataTableD2Ev(ptr noundef nonnull align 8 dereferenceable(232) %19) #13
  %20 = getelementptr inbounds nuw %"class.icu_77::LocaleDisplayNamesImpl", ptr %3, i32 0, i32 4
  call void @_ZN6icu_7712ICUDataTableD2Ev(ptr noundef nonnull align 8 dereferenceable(232) %20) #13
  %21 = getelementptr inbounds nuw %"class.icu_77::LocaleDisplayNamesImpl", ptr %3, i32 0, i32 1
  call void @_ZN6icu_776LocaleD1Ev(ptr noundef nonnull align 8 dereferenceable(217) %21) #13
  call void @_ZN6icu_7718LocaleDisplayNamesD2Ev(ptr noundef nonnull align 8 dereferenceable(8) %3) #13
  ret void
}