; Function Attrs: mustprogress nounwind uwtable
define void @_ZN6icu_7722LocaleDisplayNamesImplD2Ev(ptr noundef nonnull align 8 dereferenceable(1206) initializes((0, 8)) %0) unnamed_addr #0 align 2 {
  store ptr getelementptr inbounds nuw inrange(-16, 120) (i8, ptr @_ZTVN6icu_7722LocaleDisplayNamesImplE, i64 16), ptr %0, align 8, !tbaa !21
  %2 = getelementptr inbounds nuw i8, ptr %0, i64 928
  %3 = load ptr, ptr %2, align 8, !tbaa !33
  %4 = icmp eq ptr %3, null
  br i1 %4, label %9, label %5

5:                                                ; preds = %1
  %6 = load ptr, ptr %3, align 8, !tbaa !21
  %7 = getelementptr inbounds nuw i8, ptr %6, i64 8
  %8 = load ptr, ptr %7, align 8
  tail call void %8(ptr noundef nonnull align 8 dereferenceable(32) %3) #19
  br label %9

9:                                                ; preds = %5, %1
  %10 = getelementptr inbounds nuw i8, ptr %0, i64 1128
  tail call void @_ZN6icu_7713UnicodeStringD1Ev(ptr noundef nonnull align 8 dereferenceable(64) %10) #19
  %11 = getelementptr inbounds nuw i8, ptr %0, i64 1064
  tail call void @_ZN6icu_7713UnicodeStringD1Ev(ptr noundef nonnull align 8 dereferenceable(64) %11) #19
  %12 = getelementptr inbounds nuw i8, ptr %0, i64 1000
  tail call void @_ZN6icu_7713UnicodeStringD1Ev(ptr noundef nonnull align 8 dereferenceable(64) %12) #19
  %13 = getelementptr inbounds nuw i8, ptr %0, i64 936
  tail call void @_ZN6icu_7713UnicodeStringD1Ev(ptr noundef nonnull align 8 dereferenceable(64) %13) #19
  %14 = getelementptr inbounds nuw i8, ptr %0, i64 848
  tail call void @_ZN6icu_7715SimpleFormatterD1Ev(ptr noundef nonnull align 8 dereferenceable(72) %14) #19
  %15 = getelementptr inbounds nuw i8, ptr %0, i64 776
  tail call void @_ZN6icu_7715SimpleFormatterD1Ev(ptr noundef nonnull align 8 dereferenceable(72) %15) #19
  %16 = getelementptr inbounds nuw i8, ptr %0, i64 704
  tail call void @_ZN6icu_7715SimpleFormatterD1Ev(ptr noundef nonnull align 8 dereferenceable(72) %16) #19
  %17 = getelementptr inbounds nuw i8, ptr %0, i64 480
  tail call void @_ZN6icu_776LocaleD1Ev(ptr noundef nonnull align 8 dereferenceable(217) %17) #19
  %18 = getelementptr inbounds nuw i8, ptr %0, i64 248
  tail call void @_ZN6icu_776LocaleD1Ev(ptr noundef nonnull align 8 dereferenceable(217) %18) #19
  %19 = getelementptr inbounds nuw i8, ptr %0, i64 8
  tail call void @_ZN6icu_776LocaleD1Ev(ptr noundef nonnull align 8 dereferenceable(217) %19) #19
  tail call void @_ZN6icu_777UObjectD2Ev(ptr noundef nonnull align 8 dereferenceable(8) %0) #19
  ret void
}